target datalayout = "e-m:e-p270:32:32-p271:32:32-p272:64:64-i64:64-i128:128-f80:128-n8:16:32:64-S128"
target triple = "x86_64-pc-linux-gnu"

%struct.AVFilterPad = type { ptr, i32, i32, %union.anon, ptr, ptr, ptr }
%union.anon = type { ptr }
%struct.AVFilterContext = type { ptr, ptr, ptr, ptr, ptr, i32, ptr, ptr, i32, ptr, ptr, i32, i32, ptr, ptr, ptr, ptr, i32, ptr, i32, i32 }
%struct.MergePlanesContext = type { ptr, i64, i32, i32, i32, [4 x i32], [4 x i32], [4 x %struct.Mapping], [4 x ptr], ptr, %struct.FFFrameSync }
%struct.Mapping = type { i32, i32 }
%struct.FFFrameSync = type { ptr, ptr, i32, %struct.AVRational, i64, ptr, ptr, i32, i32, i8, i8, ptr, i32, i32, i32, i32 }
%struct.AVRational = type { i32, i32 }
%struct.AVPixFmtDescriptor = type { ptr, i8, i8, i8, i64, [4 x %struct.AVComponentDescriptor], ptr }
%struct.AVComponentDescriptor = type { i32, i32, i32, i32, i32 }

@.str.30 = private unnamed_addr constant [65 x i8] c"Only planar formats with more than one component are supported.\0A\00", align 1
@.str.31 = private unnamed_addr constant [54 x i8] c"Mapping with out of range input and/or plane number.\0A\00", align 1
@.str.32 = private unnamed_addr constant [30 x i8] c"Assertion %s failed at %s:%d\0A\00", align 1
@.str.33 = private unnamed_addr constant [34 x i8] c"s->nb_inputs && s->nb_inputs <= 4\00", align 1
@.str.34 = private unnamed_addr constant [29 x i8] c"libavfilter/vf_mergeplanes.c\00", align 1
@.str.35 = private unnamed_addr constant [5 x i8] c"in%d\00", align 1

; Function Attrs: cold nounwind optsize uwtable
define internal i32 @init(ptr noundef %0) #0 {
  %2 = alloca i32, align 4
  %3 = alloca ptr, align 8
  %4 = alloca ptr, align 8
  %5 = alloca i64, align 8
  %6 = alloca i32, align 4
  %7 = alloca i32, align 4
  %8 = alloca i32, align 4
  %9 = alloca %struct.AVFilterPad, align 8
  store ptr %0, ptr %3, align 8, !tbaa !4
  call void @llvm.lifetime.start.p0(i64 8, ptr %4) #10
  %10 = load ptr, ptr %3, align 8, !tbaa !4
  %11 = getelementptr inbounds nuw %struct.AVFilterContext, ptr %10, i32 0, i32 9
  %12 = load ptr, ptr %11, align 8, !tbaa !9
  store ptr %12, ptr %4, align 8, !tbaa !22
  call void @llvm.lifetime.start.p0(i64 8, ptr %5) #10
  %13 = load ptr, ptr %4, align 8, !tbaa !22
  %14 = getelementptr inbounds nuw %struct.MergePlanesContext, ptr %13, i32 0, i32 1
  %15 = load i64, ptr %14, align 8, !tbaa !24
  store i64 %15, ptr %5, align 8, !tbaa !31
  call void @llvm.lifetime.start.p0(i64 4, ptr %6) #10
  call void @llvm.lifetime.start.p0(i64 4, ptr %7) #10
  %16 = load ptr, ptr %4, align 8, !tbaa !22
  %17 = getelementptr inbounds nuw %struct.MergePlanesContext, ptr %16, i32 0, i32 2
  %18 = load i32, ptr %17, align 8, !tbaa !32
  %19 = call ptr @av_pix_fmt_desc_get(i32 noundef %18)
  %20 = load ptr, ptr %4, align 8, !tbaa !22
  %21 = getelementptr inbounds nuw %struct.MergePlanesContext, ptr %20, i32 0, i32 9
  store ptr %19, ptr %21, align 8, !tbaa !33
  %22 = load ptr, ptr %4, align 8, !tbaa !22
  %23 = getelementptr inbounds nuw %struct.MergePlanesContext, ptr %22, i32 0, i32 9
  %24 = load ptr, ptr %23, align 8, !tbaa !33
  %25 = getelementptr inbounds nuw %struct.AVPixFmtDescriptor, ptr %24, i32 0, i32 4
  %26 = load i64, ptr %25, align 8, !tbaa !34
  %27 = and i64 %26, 16
  %28 = icmp ne i64 %27, 0
  br i1 %28, label %29, label %37

29:                                               ; preds = %1
  %30 = load ptr, ptr %4, align 8, !tbaa !22
  %31 = getelementptr inbounds nuw %struct.MergePlanesContext, ptr %30, i32 0, i32 9
  %32 = load ptr, ptr %31, align 8, !tbaa !33
  %33 = getelementptr inbounds nuw %struct.AVPixFmtDescriptor, ptr %32, i32 0, i32 1
  %34 = load i8, ptr %33, align 8, !tbaa !36
  %35 = zext i8 %34 to i32
  %36 = icmp slt i32 %35, 2
  br i1 %36, label %37, label %39

37:                                               ; preds = %29, %1
  %38 = load ptr, ptr %3, align 8, !tbaa !4
  call void (ptr, i32, ptr, ...) @av_log(ptr noundef %38, i32 noundef 16, ptr noundef @.str.30)
  store i32 -22, ptr %2, align 4
  store i32 1, ptr %8, align 4
  br label %179

39:                                               ; preds = %29
  %40 = load ptr, ptr %4, align 8, !tbaa !22
  %41 = getelementptr inbounds nuw %struct.MergePlanesContext, ptr %40, i32 0, i32 2
  %42 = load i32, ptr %41, align 8, !tbaa !32
  %43 = call i32 @av_pix_fmt_count_planes(i32 noundef %42)
  %44 = load ptr, ptr %4, align 8, !tbaa !22
  %45 = getelementptr inbounds nuw %struct.MergePlanesContext, ptr %44, i32 0, i32 4
  store i32 %43, ptr %45, align 8, !tbaa !37
  %46 = load ptr, ptr %4, align 8, !tbaa !22
  %47 = getelementptr inbounds nuw %struct.MergePlanesContext, ptr %46, i32 0, i32 4
  %48 = load i32, ptr %47, align 8, !tbaa !37
  %49 = sub nsw i32 %48, 1
  store i32 %49, ptr %6, align 4, !tbaa !38
  br label %50

50:                                               ; preds = %132, %39
  %51 = load i32, ptr %6, align 4, !tbaa !38
  %52 = icmp sge i32 %51, 0
  br i1 %52, label %53, label %135

53:                                               ; preds = %50
  %54 = load i64, ptr %5, align 8, !tbaa !31
  %55 = icmp sge i64 %54, 0
  br i1 %55, label %56, label %82

56:                                               ; preds = %53
  %57 = load i64, ptr %5, align 8, !tbaa !31
  %58 = icmp sle i64 %57, 858993459
  br i1 %58, label %59, label %82

59:                                               ; preds = %56
  %60 = load i64, ptr %5, align 8, !tbaa !31
  %61 = and i64 %60, 15
  %62 = trunc i64 %61 to i32
  %63 = load ptr, ptr %4, align 8, !tbaa !22
  %64 = getelementptr inbounds nuw %struct.MergePlanesContext, ptr %63, i32 0, i32 7
  %65 = load i32, ptr %6, align 4, !tbaa !38
  %66 = sext i32 %65 to i64
  %67 = getelementptr inbounds [4 x %struct.Mapping], ptr %64, i64 0, i64 %66
  %68 = getelementptr inbounds nuw %struct.Mapping, ptr %67, i32 0, i32 1
  store i32 %62, ptr %68, align 4, !tbaa !39
  %69 = load i64, ptr %5, align 8, !tbaa !31
  %70 = ashr i64 %69, 4
  store i64 %70, ptr %5, align 8, !tbaa !31
  %71 = load i64, ptr %5, align 8, !tbaa !31
  %72 = and i64 %71, 15
  %73 = trunc i64 %72 to i32
  %74 = load ptr, ptr %4, align 8, !tbaa !22
  %75 = getelementptr inbounds nuw %struct.MergePlanesContext, ptr %74, i32 0, i32 7
  %76 = load i32, ptr %6, align 4, !tbaa !38
  %77 = sext i32 %76 to i64
  %78 = getelementptr inbounds [4 x %struct.Mapping], ptr %75, i64 0, i64 %77
  %79 = getelementptr inbounds nuw %struct.Mapping, ptr %78, i32 0, i32 0
  store i32 %73, ptr %79, align 4, !tbaa !41
  %80 = load i64, ptr %5, align 8, !tbaa !31
  %81 = ashr i64 %80, 4
  store i64 %81, ptr %5, align 8, !tbaa !31
  br label %82

82:                                               ; preds = %59, %56, %53
  %83 = load ptr, ptr %4, align 8, !tbaa !22
  %84 = getelementptr inbounds nuw %struct.MergePlanesContext, ptr %83, i32 0, i32 7
  %85 = load i32, ptr %6, align 4, !tbaa !38
  %86 = sext i32 %85 to i64
  %87 = getelementptr inbounds [4 x %struct.Mapping], ptr %84, i64 0, i64 %86
  %88 = getelementptr inbounds nuw %struct.Mapping, ptr %87, i32 0, i32 1
  %89 = load i32, ptr %88, align 4, !tbaa !39
  %90 = icmp sgt i32 %89, 3
  br i1 %90, label %100, label %91

91:                                               ; preds = %82
  %92 = load ptr, ptr %4, align 8, !tbaa !22
  %93 = getelementptr inbounds nuw %struct.MergePlanesContext, ptr %92, i32 0, i32 7
  %94 = load i32, ptr %6, align 4, !tbaa !38
  %95 = sext i32 %94 to i64
  %96 = getelementptr inbounds [4 x %struct.Mapping], ptr %93, i64 0, i64 %95
  %97 = getelementptr inbounds nuw %struct.Mapping, ptr %96, i32 0, i32 0
  %98 = load i32, ptr %97, align 4, !tbaa !41
  %99 = icmp sgt i32 %98, 3
  br i1 %99, label %100, label %102

100:                                              ; preds = %91, %82
  %101 = load ptr, ptr %3, align 8, !tbaa !4
  call void (ptr, i32, ptr, ...) @av_log(ptr noundef %101, i32 noundef 16, ptr noundef @.str.31)
  store i32 -22, ptr %2, align 4
  store i32 1, ptr %8, align 4
  br label %179

102:                                              ; preds = %91
  %103 = load ptr, ptr %4, align 8, !tbaa !22
  %104 = getelementptr inbounds nuw %struct.MergePlanesContext, ptr %103, i32 0, i32 3
  %105 = load i32, ptr %104, align 4, !tbaa !42
  %106 = load ptr, ptr %4, align 8, !tbaa !22
  %107 = getelementptr inbounds nuw %struct.MergePlanesContext, ptr %106, i32 0, i32 7
  %108 = load i32, ptr %6, align 4, !tbaa !38
  %109 = sext i32 %108 to i64
  %110 = getelementptr inbounds [4 x %struct.Mapping], ptr %107, i64 0, i64 %109
  %111 = getelementptr inbounds nuw %struct.Mapping, ptr %110, i32 0, i32 0
  %112 = load i32, ptr %111, align 4, !tbaa !41
  %113 = add nsw i32 %112, 1
  %114 = icmp sgt i32 %105, %113
  br i1 %114, label %115, label %119

115:                                              ; preds = %102
  %116 = load ptr, ptr %4, align 8, !tbaa !22
  %117 = getelementptr inbounds nuw %struct.MergePlanesContext, ptr %116, i32 0, i32 3
  %118 = load i32, ptr %117, align 4, !tbaa !42
  br label %128

119:                                              ; preds = %102
  %120 = load ptr, ptr %4, align 8, !tbaa !22
  %121 = getelementptr inbounds nuw %struct.MergePlanesContext, ptr %120, i32 0, i32 7
  %122 = load i32, ptr %6, align 4, !tbaa !38
  %123 = sext i32 %122 to i64
  %124 = getelementptr inbounds [4 x %struct.Mapping], ptr %121, i64 0, i64 %123
  %125 = getelementptr inbounds nuw %struct.Mapping, ptr %124, i32 0, i32 0
  %126 = load i32, ptr %125, align 4, !tbaa !41
  %127 = add nsw i32 %126, 1
  br label %128

128:                                              ; preds = %119, %115
  %129 = phi i32 [ %118, %115 ], [ %127, %119 ]
  %130 = load ptr, ptr %4, align 8, !tbaa !22
  %131 = getelementptr inbounds nuw %struct.MergePlanesContext, ptr %130, i32 0, i32 3
  store i32 %129, ptr %131, align 4, !tbaa !42
  br label %132

132:                                              ; preds = %128
  %133 = load i32, ptr %6, align 4, !tbaa !38
  %134 = add nsw i32 %133, -1
  store i32 %134, ptr %6, align 4, !tbaa !38
  br label %50, !llvm.loop !43

135:                                              ; preds = %50
  br label %136

136:                                              ; preds = %135
  %137 = load ptr, ptr %4, align 8, !tbaa !22
  %138 = getelementptr inbounds nuw %struct.MergePlanesContext, ptr %137, i32 0, i32 3
  %139 = load i32, ptr %138, align 4, !tbaa !42
  %140 = icmp ne i32 %139, 0
  br i1 %140, label %141, label %146

141:                                              ; preds = %136
  %142 = load ptr, ptr %4, align 8, !tbaa !22
  %143 = getelementptr inbounds nuw %struct.MergePlanesContext, ptr %142, i32 0, i32 3
  %144 = load i32, ptr %143, align 4, !tbaa !42
  %145 = icmp sle i32 %144, 4
  br i1 %145, label %147, label %146

146:                                              ; preds = %141, %136
  call void (ptr, i32, ptr, ...) @av_log(ptr noundef null, i32 noundef 0, ptr noundef @.str.32, ptr noundef @.str.33, ptr noundef @.str.34, i32 noundef 107)
  call void @abort() #11
  unreachable

147:                                              ; preds = %141
  br label %148

148:                                              ; preds = %147
  br label %149

149:                                              ; preds = %148
  store i32 0, ptr %6, align 4, !tbaa !38
  br label %150

150:                                              ; preds = %175, %149
  %151 = load i32, ptr %6, align 4, !tbaa !38
  %152 = load ptr, ptr %4, align 8, !tbaa !22
  %153 = getelementptr inbounds nuw %struct.MergePlanesContext, ptr %152, i32 0, i32 3
  %154 = load i32, ptr %153, align 4, !tbaa !42
  %155 = icmp slt i32 %151, %154
  br i1 %155, label %156, label %178

156:                                              ; preds = %150
  call void @llvm.lifetime.start.p0(i64 48, ptr %9) #10
  call void @llvm.memset.p0.i64(ptr align 8 %9, i8 0, i64 48, i1 false)
  %157 = getelementptr inbounds nuw %struct.AVFilterPad, ptr %9, i32 0, i32 1
  store i32 0, ptr %157, align 8, !tbaa !45
  %158 = load i32, ptr %6, align 4, !tbaa !38
  %159 = call ptr (ptr, ...) @av_asprintf(ptr noundef @.str.35, i32 noundef %158)
  %160 = getelementptr inbounds nuw %struct.AVFilterPad, ptr %9, i32 0, i32 0
  store ptr %159, ptr %160, align 8, !tbaa !47
  %161 = getelementptr inbounds nuw %struct.AVFilterPad, ptr %9, i32 0, i32 0
  %162 = load ptr, ptr %161, align 8, !tbaa !47
  %163 = icmp ne ptr %162, null
  br i1 %163, label %165, label %164

164:                                              ; preds = %156
  store i32 -12, ptr %2, align 4
  store i32 1, ptr %8, align 4
  br label %172

165:                                              ; preds = %156
  %166 = load ptr, ptr %3, align 8, !tbaa !4
  %167 = call i32 @ff_append_inpad_free_name(ptr noundef %166, ptr noundef %9)
  store i32 %167, ptr %7, align 4, !tbaa !38
  %168 = icmp slt i32 %167, 0
  br i1 %168, label %169, label %171

169:                                              ; preds = %165
  %170 = load i32, ptr %7, align 4, !tbaa !38
  store i32 %170, ptr %2, align 4
  store i32 1, ptr %8, align 4
  br label %172

171:                                              ; preds = %165
  store i32 0, ptr %8, align 4
  br label %172

172:                                              ; preds = %171, %169, %164
  call void @llvm.lifetime.end.p0(i64 48, ptr %9) #10
  %173 = load i32, ptr %8, align 4
  switch i32 %173, label %179 [
    i32 0, label %174
  ]

174:                                              ; preds = %172
  br label %175

175:                                              ; preds = %174
  %176 = load i32, ptr %6, align 4, !tbaa !38
  %177 = add nsw i32 %176, 1
  store i32 %177, ptr %6, align 4, !tbaa !38
  br label %150, !llvm.loop !48

178:                                              ; preds = %150
  store i32 0, ptr %2, align 4
  store i32 1, ptr %8, align 4
  br label %179

179:                                              ; preds = %178, %172, %100, %37
  call void @llvm.lifetime.end.p0(i64 4, ptr %7) #10
  call void @llvm.lifetime.end.p0(i64 4, ptr %6) #10
  call void @llvm.lifetime.end.p0(i64 8, ptr %5) #10
  call void @llvm.lifetime.end.p0(i64 8, ptr %4) #10
  %180 = load i32, ptr %2, align 4
  ret i32 %180
}