; Function Attrs: cold nounwind optsize uwtable
define internal range(i32 -2147483648, 1) i32 @init(ptr noundef %0) #0 {
  %2 = alloca %struct.AVFilterPad, align 8
  %3 = getelementptr inbounds nuw i8, ptr %0, i64 72
  %4 = load ptr, ptr %3, align 8, !tbaa !4
  %5 = getelementptr inbounds nuw i8, ptr %4, i64 8
  %6 = load i64, ptr %5, align 8, !tbaa !20
  %7 = getelementptr inbounds nuw i8, ptr %4, i64 16
  %8 = load i32, ptr %7, align 8, !tbaa !28
  %9 = tail call ptr @av_pix_fmt_desc_get(i32 noundef %8) #8
  %10 = getelementptr inbounds nuw i8, ptr %4, i64 128
  store ptr %9, ptr %10, align 8, !tbaa !29
  %11 = getelementptr inbounds nuw i8, ptr %9, i64 16
  %12 = load i64, ptr %11, align 8, !tbaa !30
  %13 = and i64 %12, 16
  %.not = icmp eq i64 %13, 0
  br i1 %.not, label %18, label %14

14:                                               ; preds = %1
  %15 = getelementptr inbounds nuw i8, ptr %9, i64 8
  %16 = load i8, ptr %15, align 8, !tbaa !32
  %17 = icmp ult i8 %16, 2
  br i1 %17, label %18, label %19

18:                                               ; preds = %14, %1
  tail call void (ptr, i32, ptr, ...) @av_log(ptr noundef nonnull %0, i32 noundef 16, ptr noundef nonnull @.str.30) #8
  br label %.loopexit

19:                                               ; preds = %14
  %20 = load i32, ptr %7, align 8, !tbaa !28
  %21 = tail call i32 @av_pix_fmt_count_planes(i32 noundef %20) #8
  %22 = getelementptr inbounds nuw i8, ptr %4, i64 24
  store i32 %21, ptr %22, align 8, !tbaa !33
  %23 = icmp sgt i32 %21, 0
  br i1 %23, label %.lr.ph, label %.._crit_edge_crit_edge

.._crit_edge_crit_edge:                           ; preds = %19
  %.phi.trans.insert71 = getelementptr inbounds nuw i8, ptr %4, i64 20
  %.pre72 = load i32, ptr %.phi.trans.insert71, align 4, !tbaa !34
  br label %._crit_edge

.lr.ph:                                           ; preds = %19
  %24 = getelementptr inbounds nuw i8, ptr %4, i64 60
  %25 = getelementptr inbounds nuw i8, ptr %4, i64 20
  %26 = zext nneg i32 %21 to i64
  %invariant.gep = getelementptr inbounds nuw i8, ptr %4, i64 64
  br label %27

27:                                               ; preds = %.lr.ph, %44
  %indvars.iv = phi i64 [ %26, %.lr.ph ], [ %indvars.iv.next, %44 ]
  %.04761 = phi i64 [ %6, %.lr.ph ], [ %.148, %44 ]
  %indvars.iv.next = add nsw i64 %indvars.iv, -1
  %or.cond = icmp ult i64 %.04761, 858993460
  br i1 %or.cond, label %28, label %._crit_edge69

._crit_edge69:                                    ; preds = %27
  %.phi.trans.insert70.idx = shl nuw nsw i64 %indvars.iv.next, 3
  %gep = getelementptr inbounds nuw i8, ptr %invariant.gep, i64 %.phi.trans.insert70.idx
  %.pre = load i32, ptr %gep, align 4, !tbaa !35
  br label %36

28:                                               ; preds = %27
  %29 = trunc nuw nsw i64 %.04761 to i32
  %30 = and i32 %29, 15
  %31 = getelementptr inbounds nuw [4 x %struct.Mapping], ptr %24, i64 0, i64 %indvars.iv.next
  %32 = getelementptr inbounds nuw i8, ptr %31, i64 4
  store i32 %30, ptr %32, align 4, !tbaa !35
  %33 = lshr i32 %29, 4
  %34 = and i32 %33, 15
  store i32 %34, ptr %31, align 4, !tbaa !37
  %35 = lshr i64 %.04761, 8
  br label %36

36:                                               ; preds = %._crit_edge69, %28
  %37 = phi i32 [ %30, %28 ], [ %.pre, %._crit_edge69 ]
  %.148 = phi i64 [ %35, %28 ], [ %.04761, %._crit_edge69 ]
  %38 = icmp sgt i32 %37, 3
  br i1 %38, label %43, label %39

39:                                               ; preds = %36
  %40 = getelementptr inbounds nuw [4 x %struct.Mapping], ptr %24, i64 0, i64 %indvars.iv.next
  %41 = load i32, ptr %40, align 4, !tbaa !37
  %42 = icmp sgt i32 %41, 3
  br i1 %42, label %43, label %44

43:                                               ; preds = %39, %36
  tail call void (ptr, i32, ptr, ...) @av_log(ptr noundef %0, i32 noundef 16, ptr noundef nonnull @.str.31) #8
  br label %.loopexit

44:                                               ; preds = %39
  %45 = load i32, ptr %25, align 4, !tbaa !34
  %46 = add nsw i32 %41, 1
  %. = tail call i32 @llvm.smax.i32(i32 %45, i32 %46)
  store i32 %., ptr %25, align 4, !tbaa !34
  %47 = icmp samesign ugt i64 %indvars.iv, 1
  br i1 %47, label %27, label %._crit_edge, !llvm.loop !38

._crit_edge:                                      ; preds = %44, %.._crit_edge_crit_edge
  %48 = phi i32 [ %.pre72, %.._crit_edge_crit_edge ], [ %., %44 ]
  %49 = getelementptr inbounds nuw i8, ptr %4, i64 20
  %.not54 = icmp ne i32 %48, 0
  %50 = icmp slt i32 %48, 5
  %or.cond56 = and i1 %.not54, %50
  br i1 %or.cond56, label %.preheader, label %52

.preheader:                                       ; preds = %._crit_edge
  %51 = icmp sgt i32 %48, 0
  br i1 %51, label %.lr.ph65, label %.loopexit

52:                                               ; preds = %._crit_edge
  tail call void (ptr, i32, ptr, ...) @av_log(ptr noundef null, i32 noundef 0, ptr noundef nonnull @.str.32, ptr noundef nonnull @.str.33, ptr noundef nonnull @.str.34, i32 noundef 107) #8
  tail call void @abort() #9
  unreachable

53:                                               ; preds = %58
  %54 = add nuw nsw i32 %.14663, 1
  %55 = load i32, ptr %49, align 4, !tbaa !34
  %56 = icmp slt i32 %54, %55
  br i1 %56, label %.lr.ph65, label %.loopexit, !llvm.loop !40

.lr.ph65:                                         ; preds = %.preheader, %53
  %.14663 = phi i32 [ %54, %53 ], [ 0, %.preheader ]
  call void @llvm.lifetime.start.p0(i64 48, ptr nonnull %2) #8
  call void @llvm.memset.p0.i64(ptr noundef nonnull align 8 dereferenceable(48) %2, i8 0, i64 48, i1 false)
  %57 = call ptr (ptr, ...) @av_asprintf(ptr noundef nonnull @.str.35, i32 noundef %.14663) #8
  store ptr %57, ptr %2, align 8, !tbaa !41
  %.not55 = icmp eq ptr %57, null
  br i1 %.not55, label %.thread, label %58

.thread:                                          ; preds = %.lr.ph65
  call void @llvm.lifetime.end.p0(i64 48, ptr nonnull %2) #8
  br label %.loopexit

58:                                               ; preds = %.lr.ph65
  %59 = call i32 @ff_append_inpad_free_name(ptr noundef %0, ptr noundef nonnull %2) #8
  %60 = icmp sgt i32 %59, -1
  call void @llvm.lifetime.end.p0(i64 48, ptr nonnull %2) #8
  br i1 %60, label %53, label %.loopexit

.loopexit:                                        ; preds = %58, %53, %.preheader, %.thread, %43, %18
  %.044 = phi i32 [ -22, %18 ], [ -22, %43 ], [ -12, %.thread ], [ 0, %.preheader ], [ %59, %58 ], [ 0, %53 ]
  ret i32 %.044
}